; Function Attrs: nounwind uwtable
define dso_local range(i32 0, 2) i32 @generation_numbers_enabled(ptr noundef %0) local_unnamed_addr #0 {
  %2 = tail call fastcc i32 @prepare_commit_graph(ptr noundef %0)
  %.not = icmp eq i32 %2, 0
  br i1 %.not, label %37, label %3

3:                                                ; preds = %1
  %4 = getelementptr inbounds nuw i8, ptr %0, i64 16
  %5 = load ptr, ptr %4, align 8, !tbaa !9
  %6 = getelementptr inbounds nuw i8, ptr %5, i64 96
  %7 = load ptr, ptr %6, align 8, !tbaa !123
  %8 = getelementptr inbounds nuw i8, ptr %7, i64 20
  %9 = load i32, ptr %8, align 4, !tbaa !97
  %.not6 = icmp eq i32 %9, 0
  br i1 %.not6, label %37, label %10

10:                                               ; preds = %3
  %11 = getelementptr inbounds nuw i8, ptr %7, i64 112
  %12 = load ptr, ptr %11, align 8, !tbaa !100
  %13 = getelementptr inbounds nuw i8, ptr %7, i64 16
  %14 = load i8, ptr %13, align 8, !tbaa !81
  %15 = zext i8 %14 to i64
  %16 = getelementptr inbounds nuw i8, ptr %12, i64 %15
  %17 = getelementptr inbounds nuw i8, ptr %16, i64 8
  %18 = load i8, ptr %17, align 1, !tbaa !80
  %19 = zext i8 %18 to i32
  %20 = shl nuw i32 %19, 24
  %21 = getelementptr inbounds nuw i8, ptr %16, i64 9
  %22 = load i8, ptr %21, align 1, !tbaa !80
  %23 = zext i8 %22 to i32
  %24 = shl nuw nsw i32 %23, 16
  %25 = or disjoint i32 %24, %20
  %26 = getelementptr inbounds nuw i8, ptr %16, i64 10
  %27 = load i8, ptr %26, align 1, !tbaa !80
  %28 = zext i8 %27 to i32
  %29 = shl nuw nsw i32 %28, 8
  %30 = or disjoint i32 %25, %29
  %31 = getelementptr inbounds nuw i8, ptr %16, i64 11
  %32 = load i8, ptr %31, align 1, !tbaa !80
  %33 = zext i8 %32 to i32
  %34 = or disjoint i32 %30, %33
  %35 = icmp ugt i32 %34, 3
  %36 = zext i1 %35 to i32
  br label %37

37:                                               ; preds = %3, %1, %10
  %.0 = phi i32 [ %36, %10 ], [ 0, %1 ], [ 0, %3 ]
  ret i32 %.0
}